; Function Attrs: nounwind uwtable
define dso_local ptr @strmap_get(ptr noundef %0, ptr noundef %1) local_unnamed_addr #5 {
  %3 = alloca %struct.strmap_entry, align 8
  call void @llvm.lifetime.start.p0(i64 32, ptr nonnull %3) #10
  %4 = tail call i32 @strhash(ptr noundef %1) #10
  %5 = getelementptr inbounds nuw i8, ptr %3, i64 8
  store i32 %4, ptr %5, align 8, !tbaa !21
  store ptr null, ptr %3, align 8, !tbaa !22
  %6 = getelementptr inbounds nuw i8, ptr %3, i64 16
  store ptr %1, ptr %6, align 8, !tbaa !4
  %7 = call ptr @hashmap_get(ptr noundef %0, ptr noundef nonnull %3, ptr noundef null) #10
  call void @llvm.lifetime.end.p0(i64 32, ptr nonnull %3) #10
  %.not = icmp eq ptr %7, null
  br i1 %.not, label %11, label %8

8:                                                ; preds = %2
  %9 = getelementptr inbounds nuw i8, ptr %7, i64 24
  %10 = load ptr, ptr %9, align 8, !tbaa !20
  br label %11

11:                                               ; preds = %2, %8
  %12 = phi ptr [ %10, %8 ], [ null, %2 ]
  ret ptr %12
}